; Function Attrs: mustprogress nounwind uwtable
define hidden noundef ptr @_ZNK11ConvD2LNode5ValueEP8PhaseGVN(ptr nocapture noundef nonnull readonly align 8 dereferenceable(64) %0, ptr nocapture noundef readonly %1) unnamed_addr #1 align 2 {
  %3 = getelementptr inbounds i8, ptr %0, i64 8
  %4 = load ptr, ptr %3, align 8
  %5 = getelementptr inbounds i8, ptr %4, i64 8
  %6 = load ptr, ptr %5, align 8
  %7 = getelementptr inbounds i8, ptr %1, i64 40
  %8 = load ptr, ptr %7, align 8
  %9 = getelementptr inbounds i8, ptr %6, i64 40
  %10 = load i32, ptr %9, align 8
  %11 = getelementptr inbounds i8, ptr %8, i64 16
  %12 = load ptr, ptr %11, align 8
  %13 = zext i32 %10 to i64
  %14 = getelementptr inbounds ptr, ptr %12, i64 %13
  %15 = load ptr, ptr %14, align 8
  %16 = load ptr, ptr @_ZN4Type3TOPE, align 8
  %17 = icmp eq ptr %15, %16
  br i1 %17, label %28, label %18

18:                                               ; preds = %2
  %19 = load ptr, ptr @_ZN4Type6DOUBLEE, align 8
  %20 = icmp eq ptr %15, %19
  br i1 %20, label %21, label %23

21:                                               ; preds = %18
  %22 = load ptr, ptr @_ZN8TypeLong4LONGE, align 8
  br label %28

23:                                               ; preds = %18
  %24 = getelementptr inbounds i8, ptr %15, i64 24
  %25 = load double, ptr %24, align 8
  %26 = tail call noundef i64 @_ZN13SharedRuntime3d2lEd(double noundef %25) #8
  %27 = tail call noundef ptr @_ZN8TypeLong4makeEl(i64 noundef %26) #8
  br label %28

28:                                               ; preds = %2, %23, %21
  %.0 = phi ptr [ %22, %21 ], [ %27, %23 ], [ %16, %2 ]
  ret ptr %.0
}